target datalayout = "e-m:e-p270:32:32-p271:32:32-p272:64:64-i64:64-i128:128-f80:128-n8:16:32:64-S128"
target triple = "x86_64-unknown-linux-gnu"

%"class.QuantLib::Date" = type { i64 }
%"class.std::__cxx11::basic_string" = type { %"struct.std::__cxx11::basic_string<char>::_Alloc_hider", i64, %union.anon }
%"struct.std::__cxx11::basic_string<char>::_Alloc_hider" = type { ptr }
%union.anon = type { i64, [8 x i8] }

; Function Attrs: mustprogress uwtable
define void @_ZN8QuantLib3ASX8nextCodeB5cxx11ERKNS_4DateEb(ptr dead_on_unwind noalias writable sret(%"class.std::__cxx11::basic_string") align 8 %agg.result, ptr noundef nonnull align 8 dereferenceable(8) %d, i1 noundef zeroext %mainCycle) #4 align 2 {
entry:
  %result.ptr = alloca ptr, align 8
  %d.addr = alloca ptr, align 8
  %mainCycle.addr = alloca i8, align 1
  %date = alloca %"class.QuantLib::Date", align 8
  store ptr %agg.result, ptr %result.ptr, align 8
  store ptr %d, ptr %d.addr, align 8, !tbaa !3
  %storedv = zext i1 %mainCycle to i8
  store i8 %storedv, ptr %mainCycle.addr, align 1, !tbaa !7
  call void @llvm.lifetime.start.p0(i64 8, ptr %date) #10
  %0 = load ptr, ptr %d.addr, align 8, !tbaa !3
  %1 = load i8, ptr %mainCycle.addr, align 1, !tbaa !7, !range !11, !noundef !12
  %loadedv = trunc i8 %1 to i1
  %call = call i64 @_ZN8QuantLib3ASX8nextDateERKNS_4DateEb(ptr noundef nonnull align 8 dereferenceable(8) %0, i1 noundef zeroext %loadedv)
  %coerce.dive = getelementptr inbounds nuw %"class.QuantLib::Date", ptr %date, i32 0, i32 0
  store i64 %call, ptr %coerce.dive, align 8
  call void @_ZN8QuantLib3ASX4codeB5cxx11ERKNS_4DateE(ptr dead_on_unwind writable sret(%"class.std::__cxx11::basic_string") align 8 %agg.result, ptr noundef nonnull align 8 dereferenceable(8) %date)
  call void @llvm.lifetime.end.p0(i64 8, ptr %date) #10
  ret void
}