; Function Attrs: mustprogress uwtable
define void @_ZN8QuantLib3ASX8nextCodeB5cxx11ERKNS_4DateEb(ptr dead_on_unwind noalias writable sret(%"class.std::__cxx11::basic_string") align 8 %agg.result, ptr nocapture noundef nonnull readonly align 8 dereferenceable(8) %d, i1 noundef zeroext %mainCycle) local_unnamed_addr #3 align 2 {
entry:
  %date = alloca %"class.QuantLib::Date", align 8
  call void @llvm.lifetime.start.p0(i64 8, ptr nonnull %date) #17
  %call = tail call i64 @_ZN8QuantLib3ASX8nextDateERKNS_4DateEb(ptr noundef nonnull align 8 dereferenceable(8) %d, i1 noundef zeroext %mainCycle)
  store i64 %call, ptr %date, align 8
  call void @_ZN8QuantLib3ASX4codeB5cxx11ERKNS_4DateE(ptr dead_on_unwind writable sret(%"class.std::__cxx11::basic_string") align 8 %agg.result, ptr noundef nonnull align 8 dereferenceable(8) %date)
  call void @llvm.lifetime.end.p0(i64 8, ptr nonnull %date) #17
  ret void
}